; Function Attrs: nounwind uwtable
define noundef i32 @yr_arena_allocate_memory(ptr nocapture noundef %0, i64 noundef %1, ptr nocapture noundef writeonly %2) local_unnamed_addr #0 {
  %4 = tail call i32 @yr_arena_reserve_memory(ptr noundef %0, i64 noundef %1), !range !4
  %.not = icmp eq i32 %4, 0
  br i1 %.not, label %5, label %17

5:                                                ; preds = %3
  %6 = getelementptr inbounds i8, ptr %0, i64 16
  %7 = load ptr, ptr %6, align 8
  %8 = getelementptr inbounds i8, ptr %7, i64 8
  %9 = load ptr, ptr %8, align 8
  %10 = getelementptr inbounds i8, ptr %7, i64 24
  %11 = load i64, ptr %10, align 8
  %12 = getelementptr inbounds i8, ptr %9, i64 %11
  store ptr %12, ptr %2, align 8
  %13 = load ptr, ptr %6, align 8
  %14 = getelementptr inbounds i8, ptr %13, i64 24
  %15 = load i64, ptr %14, align 8
  %16 = add i64 %15, %1
  store i64 %16, ptr %14, align 8
  br label %17

17:                                               ; preds = %3, %5
  %.0 = phi i32 [ 0, %5 ], [ 1, %3 ]
  ret i32 %.0
}